target datalayout = "e-m:e-p270:32:32-p271:32:32-p272:64:64-i64:64-i128:128-f80:128-n8:16:32:64-S128"
target triple = "x86_64-unknown-linux-gnu"

@.str.38 = private unnamed_addr constant [9 x i8] c"Continue\00", align 1
@.str.39 = private unnamed_addr constant [20 x i8] c"Switching Protocols\00", align 1
@.str.40 = private unnamed_addr constant [3 x i8] c"OK\00", align 1
@.str.41 = private unnamed_addr constant [8 x i8] c"Created\00", align 1
@.str.42 = private unnamed_addr constant [9 x i8] c"Accepted\00", align 1
@.str.43 = private unnamed_addr constant [30 x i8] c"Non-Authoritative Information\00", align 1
@.str.44 = private unnamed_addr constant [11 x i8] c"No Content\00", align 1
@.str.45 = private unnamed_addr constant [14 x i8] c"Reset Content\00", align 1
@.str.46 = private unnamed_addr constant [16 x i8] c"Partial Content\00", align 1
@.str.47 = private unnamed_addr constant [17 x i8] c"Multiple Choices\00", align 1
@.str.48 = private unnamed_addr constant [18 x i8] c"Moved Permanently\00", align 1
@.str.49 = private unnamed_addr constant [6 x i8] c"Found\00", align 1
@.str.50 = private unnamed_addr constant [10 x i8] c"See Other\00", align 1
@.str.51 = private unnamed_addr constant [13 x i8] c"Not Modified\00", align 1
@.str.52 = private unnamed_addr constant [10 x i8] c"Use Proxy\00", align 1
@.str.53 = private unnamed_addr constant [19 x i8] c"Temporary Redirect\00", align 1
@.str.54 = private unnamed_addr constant [12 x i8] c"Bad Request\00", align 1
@.str.55 = private unnamed_addr constant [13 x i8] c"Unauthorized\00", align 1
@.str.56 = private unnamed_addr constant [17 x i8] c"Payment Required\00", align 1
@.str.57 = private unnamed_addr constant [10 x i8] c"Forbidden\00", align 1
@.str.58 = private unnamed_addr constant [10 x i8] c"Not Found\00", align 1
@.str.59 = private unnamed_addr constant [19 x i8] c"Method Not Allowed\00", align 1
@.str.60 = private unnamed_addr constant [15 x i8] c"Not Acceptable\00", align 1
@.str.61 = private unnamed_addr constant [30 x i8] c"Proxy Authentication Required\00", align 1
@.str.62 = private unnamed_addr constant [16 x i8] c"Request Timeout\00", align 1
@.str.63 = private unnamed_addr constant [9 x i8] c"Conflict\00", align 1
@.str.64 = private unnamed_addr constant [5 x i8] c"Gone\00", align 1
@.str.65 = private unnamed_addr constant [16 x i8] c"Length Required\00", align 1
@.str.66 = private unnamed_addr constant [20 x i8] c"Precondition Failed\00", align 1
@.str.67 = private unnamed_addr constant [25 x i8] c"Request Entity Too Large\00", align 1
@.str.68 = private unnamed_addr constant [21 x i8] c"Request-URI Too Long\00", align 1
@.str.69 = private unnamed_addr constant [23 x i8] c"Unsupported Media Type\00", align 1
@.str.70 = private unnamed_addr constant [32 x i8] c"Requested Range Not Satisfiable\00", align 1
@.str.71 = private unnamed_addr constant [19 x i8] c"Expectation Failed\00", align 1
@.str.72 = private unnamed_addr constant [13 x i8] c"I'm a teapot\00", align 1
@.str.73 = private unnamed_addr constant [17 x i8] c"Upgrade Required\00", align 1
@.str.74 = private unnamed_addr constant [22 x i8] c"Precondition Required\00", align 1
@.str.75 = private unnamed_addr constant [18 x i8] c"Too Many Requests\00", align 1
@.str.76 = private unnamed_addr constant [32 x i8] c"Request Header Fields Too Large\00", align 1
@.str.77 = private unnamed_addr constant [30 x i8] c"Unavailable For Legal Reasons\00", align 1
@.str.78 = private unnamed_addr constant [22 x i8] c"Internal Server Error\00", align 1
@.str.79 = private unnamed_addr constant [16 x i8] c"Not Implemented\00", align 1
@.str.80 = private unnamed_addr constant [12 x i8] c"Bad Gateway\00", align 1
@.str.81 = private unnamed_addr constant [20 x i8] c"Service Unavailable\00", align 1
@.str.82 = private unnamed_addr constant [16 x i8] c"Gateway Timeout\00", align 1
@.str.83 = private unnamed_addr constant [27 x i8] c"HTTP Version Not Supported\00", align 1
@.str.84 = private unnamed_addr constant [2 x i8] c"-\00", align 1

; Function Attrs: mustprogress nounwind uwtable
define noundef ptr @_ZN8proxygen11HTTPMessage16getDefaultReasonEt(i16 noundef zeroext %status) #4 align 2 {
entry:
  %retval = alloca ptr, align 8
  %status.addr = alloca i16, align 2
  store i16 %status, ptr %status.addr, align 2
  %0 = load i16, ptr %status.addr, align 2
  %conv = zext i16 %0 to i32
  switch i32 %conv, label %sw.epilog [
    i32 100, label %sw.bb
    i32 101, label %sw.bb1
    i32 200, label %sw.bb2
    i32 201, label %sw.bb3
    i32 202, label %sw.bb4
    i32 203, label %sw.bb5
    i32 204, label %sw.bb6
    i32 205, label %sw.bb7
    i32 206, label %sw.bb8
    i32 300, label %sw.bb9
    i32 301, label %sw.bb10
    i32 302, label %sw.bb11
    i32 303, label %sw.bb12
    i32 304, label %sw.bb13
    i32 305, label %sw.bb14
    i32 307, label %sw.bb15
    i32 400, label %sw.bb16
    i32 401, label %sw.bb17
    i32 402, label %sw.bb18
    i32 403, label %sw.bb19
    i32 404, label %sw.bb20
    i32 405, label %sw.bb21
    i32 406, label %sw.bb22
    i32 407, label %sw.bb23
    i32 408, label %sw.bb24
    i32 409, label %sw.bb25
    i32 410, label %sw.bb26
    i32 411, label %sw.bb27
    i32 412, label %sw.bb28
    i32 413, label %sw.bb29
    i32 414, label %sw.bb30
    i32 415, label %sw.bb31
    i32 416, label %sw.bb32
    i32 417, label %sw.bb33
    i32 418, label %sw.bb34
    i32 426, label %sw.bb35
    i32 428, label %sw.bb36
    i32 429, label %sw.bb37
    i32 431, label %sw.bb38
    i32 451, label %sw.bb39
    i32 500, label %sw.bb40
    i32 501, label %sw.bb41
    i32 502, label %sw.bb42
    i32 503, label %sw.bb43
    i32 504, label %sw.bb44
    i32 505, label %sw.bb45
  ]

sw.bb:                                            ; preds = %entry
  store ptr @.str.38, ptr %retval, align 8
  br label %return

sw.bb1:                                           ; preds = %entry
  store ptr @.str.39, ptr %retval, align 8
  br label %return

sw.bb2:                                           ; preds = %entry
  store ptr @.str.40, ptr %retval, align 8
  br label %return

sw.bb3:                                           ; preds = %entry
  store ptr @.str.41, ptr %retval, align 8
  br label %return

sw.bb4:                                           ; preds = %entry
  store ptr @.str.42, ptr %retval, align 8
  br label %return

sw.bb5:                                           ; preds = %entry
  store ptr @.str.43, ptr %retval, align 8
  br label %return

sw.bb6:                                           ; preds = %entry
  store ptr @.str.44, ptr %retval, align 8
  br label %return

sw.bb7:                                           ; preds = %entry
  store ptr @.str.45, ptr %retval, align 8
  br label %return

sw.bb8:                                           ; preds = %entry
  store ptr @.str.46, ptr %retval, align 8
  br label %return

sw.bb9:                                           ; preds = %entry
  store ptr @.str.47, ptr %retval, align 8
  br label %return

sw.bb10:                                          ; preds = %entry
  store ptr @.str.48, ptr %retval, align 8
  br label %return

sw.bb11:                                          ; preds = %entry
  store ptr @.str.49, ptr %retval, align 8
  br label %return

sw.bb12:                                          ; preds = %entry
  store ptr @.str.50, ptr %retval, align 8
  br label %return

sw.bb13:                                          ; preds = %entry
  store ptr @.str.51, ptr %retval, align 8
  br label %return

sw.bb14:                                          ; preds = %entry
  store ptr @.str.52, ptr %retval, align 8
  br label %return

sw.bb15:                                          ; preds = %entry
  store ptr @.str.53, ptr %retval, align 8
  br label %return

sw.bb16:                                          ; preds = %entry
  store ptr @.str.54, ptr %retval, align 8
  br label %return

sw.bb17:                                          ; preds = %entry
  store ptr @.str.55, ptr %retval, align 8
  br label %return

sw.bb18:                                          ; preds = %entry
  store ptr @.str.56, ptr %retval, align 8
  br label %return

sw.bb19:                                          ; preds = %entry
  store ptr @.str.57, ptr %retval, align 8
  br label %return

sw.bb20:                                          ; preds = %entry
  store ptr @.str.58, ptr %retval, align 8
  br label %return

sw.bb21:                                          ; preds = %entry
  store ptr @.str.59, ptr %retval, align 8
  br label %return

sw.bb22:                                          ; preds = %entry
  store ptr @.str.60, ptr %retval, align 8
  br label %return

sw.bb23:                                          ; preds = %entry
  store ptr @.str.61, ptr %retval, align 8
  br label %return

sw.bb24:                                          ; preds = %entry
  store ptr @.str.62, ptr %retval, align 8
  br label %return

sw.bb25:                                          ; preds = %entry
  store ptr @.str.63, ptr %retval, align 8
  br label %return

sw.bb26:                                          ; preds = %entry
  store ptr @.str.64, ptr %retval, align 8
  br label %return

sw.bb27:                                          ; preds = %entry
  store ptr @.str.65, ptr %retval, align 8
  br label %return

sw.bb28:                                          ; preds = %entry
  store ptr @.str.66, ptr %retval, align 8
  br label %return

sw.bb29:                                          ; preds = %entry
  store ptr @.str.67, ptr %retval, align 8
  br label %return

sw.bb30:                                          ; preds = %entry
  store ptr @.str.68, ptr %retval, align 8
  br label %return

sw.bb31:                                          ; preds = %entry
  store ptr @.str.69, ptr %retval, align 8
  br label %return

sw.bb32:                                          ; preds = %entry
  store ptr @.str.70, ptr %retval, align 8
  br label %return

sw.bb33:                                          ; preds = %entry
  store ptr @.str.71, ptr %retval, align 8
  br label %return

sw.bb34:                                          ; preds = %entry
  store ptr @.str.72, ptr %retval, align 8
  br label %return

sw.bb35:                                          ; preds = %entry
  store ptr @.str.73, ptr %retval, align 8
  br label %return

sw.bb36:                                          ; preds = %entry
  store ptr @.str.74, ptr %retval, align 8
  br label %return

sw.bb37:                                          ; preds = %entry
  store ptr @.str.75, ptr %retval, align 8
  br label %return

sw.bb38:                                          ; preds = %entry
  store ptr @.str.76, ptr %retval, align 8
  br label %return

sw.bb39:                                          ; preds = %entry
  store ptr @.str.77, ptr %retval, align 8
  br label %return

sw.bb40:                                          ; preds = %entry
  store ptr @.str.78, ptr %retval, align 8
  br label %return

sw.bb41:                                          ; preds = %entry
  store ptr @.str.79, ptr %retval, align 8
  br label %return

sw.bb42:                                          ; preds = %entry
  store ptr @.str.80, ptr %retval, align 8
  br label %return

sw.bb43:                                          ; preds = %entry
  store ptr @.str.81, ptr %retval, align 8
  br label %return

sw.bb44:                                          ; preds = %entry
  store ptr @.str.82, ptr %retval, align 8
  br label %return

sw.bb45:                                          ; preds = %entry
  store ptr @.str.83, ptr %retval, align 8
  br label %return

sw.epilog:                                        ; preds = %entry
  store ptr @.str.84, ptr %retval, align 8
  br label %return

return:                                           ; preds = %sw.epilog, %sw.bb45, %sw.bb44, %sw.bb43, %sw.bb42, %sw.bb41, %sw.bb40, %sw.bb39, %sw.bb38, %sw.bb37, %sw.bb36, %sw.bb35, %sw.bb34, %sw.bb33, %sw.bb32, %sw.bb31, %sw.bb30, %sw.bb29, %sw.bb28, %sw.bb27, %sw.bb26, %sw.bb25, %sw.bb24, %sw.bb23, %sw.bb22, %sw.bb21, %sw.bb20, %sw.bb19, %sw.bb18, %sw.bb17, %sw.bb16, %sw.bb15, %sw.bb14, %sw.bb13, %sw.bb12, %sw.bb11, %sw.bb10, %sw.bb9, %sw.bb8, %sw.bb7, %sw.bb6, %sw.bb5, %sw.bb4, %sw.bb3, %sw.bb2, %sw.bb1, %sw.bb
  %1 = load ptr, ptr %retval, align 8
  ret ptr %1
}