; Function Attrs: mustprogress nofree norecurse nosync nounwind willreturn memory(none) uwtable
define noundef nonnull ptr @_ZN8proxygen11HTTPMessage16getDefaultReasonEt(i16 noundef zeroext %status) local_unnamed_addr #9 align 2 {
entry:
  switch i16 %status, label %sw.epilog [
    i16 100, label %return
    i16 101, label %sw.bb1
    i16 200, label %sw.bb2
    i16 201, label %sw.bb3
    i16 202, label %sw.bb4
    i16 203, label %sw.bb5
    i16 204, label %sw.bb6
    i16 205, label %sw.bb7
    i16 206, label %sw.bb8
    i16 300, label %sw.bb9
    i16 301, label %sw.bb10
    i16 302, label %sw.bb11
    i16 303, label %sw.bb12
    i16 304, label %sw.bb13
    i16 305, label %sw.bb14
    i16 307, label %sw.bb15
    i16 400, label %sw.bb16
    i16 401, label %sw.bb17
    i16 402, label %sw.bb18
    i16 403, label %sw.bb19
    i16 404, label %sw.bb20
    i16 405, label %sw.bb21
    i16 406, label %sw.bb22
    i16 407, label %sw.bb23
    i16 408, label %sw.bb24
    i16 409, label %sw.bb25
    i16 410, label %sw.bb26
    i16 411, label %sw.bb27
    i16 412, label %sw.bb28
    i16 413, label %sw.bb29
    i16 414, label %sw.bb30
    i16 415, label %sw.bb31
    i16 416, label %sw.bb32
    i16 417, label %sw.bb33
    i16 418, label %sw.bb34
    i16 426, label %sw.bb35
    i16 428, label %sw.bb36
    i16 429, label %sw.bb37
    i16 431, label %sw.bb38
    i16 451, label %sw.bb39
    i16 500, label %sw.bb40
    i16 501, label %sw.bb41
    i16 502, label %sw.bb42
    i16 503, label %sw.bb43
    i16 504, label %sw.bb44
    i16 505, label %sw.bb45
  ]

sw.bb1:                                           ; preds = %entry
  br label %return

sw.bb2:                                           ; preds = %entry
  br label %return

sw.bb3:                                           ; preds = %entry
  br label %return

sw.bb4:                                           ; preds = %entry
  br label %return

sw.bb5:                                           ; preds = %entry
  br label %return

sw.bb6:                                           ; preds = %entry
  br label %return

sw.bb7:                                           ; preds = %entry
  br label %return

sw.bb8:                                           ; preds = %entry
  br label %return

sw.bb9:                                           ; preds = %entry
  br label %return

sw.bb10:                                          ; preds = %entry
  br label %return

sw.bb11:                                          ; preds = %entry
  br label %return

sw.bb12:                                          ; preds = %entry
  br label %return

sw.bb13:                                          ; preds = %entry
  br label %return

sw.bb14:                                          ; preds = %entry
  br label %return

sw.bb15:                                          ; preds = %entry
  br label %return

sw.bb16:                                          ; preds = %entry
  br label %return

sw.bb17:                                          ; preds = %entry
  br label %return

sw.bb18:                                          ; preds = %entry
  br label %return

sw.bb19:                                          ; preds = %entry
  br label %return

sw.bb20:                                          ; preds = %entry
  br label %return

sw.bb21:                                          ; preds = %entry
  br label %return

sw.bb22:                                          ; preds = %entry
  br label %return

sw.bb23:                                          ; preds = %entry
  br label %return

sw.bb24:                                          ; preds = %entry
  br label %return

sw.bb25:                                          ; preds = %entry
  br label %return

sw.bb26:                                          ; preds = %entry
  br label %return

sw.bb27:                                          ; preds = %entry
  br label %return

sw.bb28:                                          ; preds = %entry
  br label %return

sw.bb29:                                          ; preds = %entry
  br label %return

sw.bb30:                                          ; preds = %entry
  br label %return

sw.bb31:                                          ; preds = %entry
  br label %return

sw.bb32:                                          ; preds = %entry
  br label %return

sw.bb33:                                          ; preds = %entry
  br label %return

sw.bb34:                                          ; preds = %entry
  br label %return

sw.bb35:                                          ; preds = %entry
  br label %return

sw.bb36:                                          ; preds = %entry
  br label %return

sw.bb37:                                          ; preds = %entry
  br label %return

sw.bb38:                                          ; preds = %entry
  br label %return

sw.bb39:                                          ; preds = %entry
  br label %return

sw.bb40:                                          ; preds = %entry
  br label %return

sw.bb41:                                          ; preds = %entry
  br label %return

sw.bb42:                                          ; preds = %entry
  br label %return

sw.bb43:                                          ; preds = %entry
  br label %return

sw.bb44:                                          ; preds = %entry
  br label %return

sw.bb45:                                          ; preds = %entry
  br label %return

sw.epilog:                                        ; preds = %entry
  br label %return

return:                                           ; preds = %entry, %sw.epilog, %sw.bb45, %sw.bb44, %sw.bb43, %sw.bb42, %sw.bb41, %sw.bb40, %sw.bb39, %sw.bb38, %sw.bb37, %sw.bb36, %sw.bb35, %sw.bb34, %sw.bb33, %sw.bb32, %sw.bb31, %sw.bb30, %sw.bb29, %sw.bb28, %sw.bb27, %sw.bb26, %sw.bb25, %sw.bb24, %sw.bb23, %sw.bb22, %sw.bb21, %sw.bb20, %sw.bb19, %sw.bb18, %sw.bb17, %sw.bb16, %sw.bb15, %sw.bb14, %sw.bb13, %sw.bb12, %sw.bb11, %sw.bb10, %sw.bb9, %sw.bb8, %sw.bb7, %sw.bb6, %sw.bb5, %sw.bb4, %sw.bb3, %sw.bb2, %sw.bb1
  %retval.0 = phi ptr [ @.str.84, %sw.epilog ], [ @.str.83, %sw.bb45 ], [ @.str.82, %sw.bb44 ], [ @.str.81, %sw.bb43 ], [ @.str.80, %sw.bb42 ], [ @.str.79, %sw.bb41 ], [ @.str.78, %sw.bb40 ], [ @.str.77, %sw.bb39 ], [ @.str.76, %sw.bb38 ], [ @.str.75, %sw.bb37 ], [ @.str.74, %sw.bb36 ], [ @.str.73, %sw.bb35 ], [ @.str.72, %sw.bb34 ], [ @.str.71, %sw.bb33 ], [ @.str.70, %sw.bb32 ], [ @.str.69, %sw.bb31 ], [ @.str.68, %sw.bb30 ], [ @.str.67, %sw.bb29 ], [ @.str.66, %sw.bb28 ], [ @.str.65, %sw.bb27 ], [ @.str.64, %sw.bb26 ], [ @.str.63, %sw.bb25 ], [ @.str.62, %sw.bb24 ], [ @.str.61, %sw.bb23 ], [ @.str.60, %sw.bb22 ], [ @.str.59, %sw.bb21 ], [ @.str.58, %sw.bb20 ], [ @.str.57, %sw.bb19 ], [ @.str.56, %sw.bb18 ], [ @.str.55, %sw.bb17 ], [ @.str.54, %sw.bb16 ], [ @.str.53, %sw.bb15 ], [ @.str.52, %sw.bb14 ], [ @.str.51, %sw.bb13 ], [ @.str.50, %sw.bb12 ], [ @.str.49, %sw.bb11 ], [ @.str.48, %sw.bb10 ], [ @.str.47, %sw.bb9 ], [ @.str.46, %sw.bb8 ], [ @.str.45, %sw.bb7 ], [ @.str.44, %sw.bb6 ], [ @.str.43, %sw.bb5 ], [ @.str.42, %sw.bb4 ], [ @.str.41, %sw.bb3 ], [ @.str.40, %sw.bb2 ], [ @.str.39, %sw.bb1 ], [ @.str.38, %entry ]
  ret ptr %retval.0
}